; Function Attrs: mustprogress uwtable
define hidden void @_ZN15ast_translation7cleanupEv(ptr noundef nonnull align 8 dereferenceable(84) %this) local_unnamed_addr #4 align 2 {
entry:
  tail call void @_ZN15ast_translation11reset_cacheEv(ptr noundef nonnull align 8 dereferenceable(84) %this)
  %m_cache = getelementptr inbounds i8, ptr %this, i64 40
  tail call void @_ZN14core_hashtableIN7obj_mapI3astPS1_E13obj_map_entryE8obj_hashINS3_8key_dataEE10default_eqIS6_EE8finalizeEv(ptr noundef nonnull align 8 dereferenceable(20) %m_cache)
  %m_result_stack = getelementptr inbounds i8, ptr %this, i64 32
  %0 = load ptr, ptr %m_result_stack, align 8
  %tobool.not.i.i = icmp eq ptr %0, null
  br i1 %tobool.not.i.i, label %_ZN6vectorIP3astLb0EjE8finalizeEv.exit, label %if.then.i.i

if.then.i.i:                                      ; preds = %entry
  %add.ptr.i.i.i = getelementptr inbounds i8, ptr %0, i64 -8
  tail call void @_ZN6memory10deallocateEPv(ptr noundef nonnull %add.ptr.i.i.i)
  br label %_ZN6vectorIP3astLb0EjE8finalizeEv.exit

_ZN6vectorIP3astLb0EjE8finalizeEv.exit:           ; preds = %entry, %if.then.i.i
  store ptr null, ptr %m_result_stack, align 8
  %m_frame_stack = getelementptr inbounds i8, ptr %this, i64 16
  %1 = load ptr, ptr %m_frame_stack, align 8
  %tobool.not.i.i1 = icmp eq ptr %1, null
  br i1 %tobool.not.i.i1, label %_ZN6vectorIN15ast_translation5frameELb0EjE8finalizeEv.exit, label %if.then.i.i2

if.then.i.i2:                                     ; preds = %_ZN6vectorIP3astLb0EjE8finalizeEv.exit
  %add.ptr.i.i.i3 = getelementptr inbounds i8, ptr %1, i64 -8
  tail call void @_ZN6memory10deallocateEPv(ptr noundef nonnull %add.ptr.i.i.i3)
  br label %_ZN6vectorIN15ast_translation5frameELb0EjE8finalizeEv.exit

_ZN6vectorIN15ast_translation5frameELb0EjE8finalizeEv.exit: ; preds = %_ZN6vectorIP3astLb0EjE8finalizeEv.exit, %if.then.i.i2
  store ptr null, ptr %m_frame_stack, align 8
  %m_extra_children_stack = getelementptr inbounds i8, ptr %this, i64 24
  %2 = load ptr, ptr %m_extra_children_stack, align 8
  %tobool.not.i.i4 = icmp eq ptr %2, null
  br i1 %tobool.not.i.i4, label %_ZN6vectorIP3astLb0EjE8finalizeEv.exit7, label %if.then.i.i5

if.then.i.i5:                                     ; preds = %_ZN6vectorIN15ast_translation5frameELb0EjE8finalizeEv.exit
  %add.ptr.i.i.i6 = getelementptr inbounds i8, ptr %2, i64 -8
  tail call void @_ZN6memory10deallocateEPv(ptr noundef nonnull %add.ptr.i.i.i6)
  br label %_ZN6vectorIP3astLb0EjE8finalizeEv.exit7

_ZN6vectorIP3astLb0EjE8finalizeEv.exit7:          ; preds = %_ZN6vectorIN15ast_translation5frameELb0EjE8finalizeEv.exit, %if.then.i.i5
  store ptr null, ptr %m_extra_children_stack, align 8
  ret void
}